target datalayout = "e-m:e-p270:32:32-p271:32:32-p272:64:64-i64:64-i128:128-f80:128-n8:16:32:64-S128"
target triple = "x86_64-pc-linux-gnu"

%"class.Imath_3_2::Box" = type { %"class.Imath_3_2::Vec2", %"class.Imath_3_2::Vec2" }
%"class.Imath_3_2::Vec2" = type { i32, i32 }

@_ZTIN7Iex_3_46ArgExcE = external constant ptr
@.str.11 = private unnamed_addr constant [55 x i8] c"unsupported header type to get chunk offset table size\00", align 1

; Function Attrs: mustprogress uwtable
define hidden noundef i32 @_ZN7Imf_3_431getScanlineChunkOffsetTableSizeERKNS_6HeaderE(ptr noundef nonnull align 8 dereferenceable(49) %0) #6 {
  %2 = alloca ptr, align 8
  %3 = alloca ptr, align 8
  %4 = alloca i64, align 8
  %5 = alloca i64, align 8
  store ptr %0, ptr %2, align 8, !tbaa !16
  call void @llvm.lifetime.start.p0(i64 8, ptr %3) #3
  %6 = load ptr, ptr %2, align 8, !tbaa !16
  %7 = call noundef nonnull align 4 dereferenceable(16) ptr @_ZNK7Imf_3_46Header10dataWindowEv(ptr noundef nonnull align 8 dereferenceable(49) %6)
  store ptr %7, ptr %3, align 8, !tbaa !20
  call void @llvm.lifetime.start.p0(i64 8, ptr %4) #3
  %8 = load ptr, ptr %2, align 8, !tbaa !16
  %9 = call noundef nonnull align 4 dereferenceable(4) ptr @_ZNK7Imf_3_46Header11compressionEv(ptr noundef nonnull align 8 dereferenceable(49) %8)
  %10 = load i32, ptr %9, align 4, !tbaa !198
  %11 = call noundef i32 @_ZN7Imf_3_416numLinesInBufferENS_11CompressionE(i32 noundef %10)
  %12 = sext i32 %11 to i64
  store i64 %12, ptr %4, align 8, !tbaa !34
  call void @llvm.lifetime.start.p0(i64 8, ptr %5) #3
  %13 = load ptr, ptr %3, align 8, !tbaa !20
  %14 = getelementptr inbounds nuw %"class.Imath_3_2::Box", ptr %13, i32 0, i32 1
  %15 = getelementptr inbounds nuw %"class.Imath_3_2::Vec2", ptr %14, i32 0, i32 1
  %16 = load i32, ptr %15, align 4, !tbaa !24
  %17 = sext i32 %16 to i64
  %18 = load ptr, ptr %3, align 8, !tbaa !20
  %19 = getelementptr inbounds nuw %"class.Imath_3_2::Box", ptr %18, i32 0, i32 0
  %20 = getelementptr inbounds nuw %"class.Imath_3_2::Vec2", ptr %19, i32 0, i32 1
  %21 = load i32, ptr %20, align 4, !tbaa !27
  %22 = sext i32 %21 to i64
  %23 = sub nsw i64 %17, %22
  %24 = load i64, ptr %4, align 8, !tbaa !34
  %25 = add nsw i64 %23, %24
  %26 = load i64, ptr %4, align 8, !tbaa !34
  %27 = sdiv i64 %25, %26
  store i64 %27, ptr %5, align 8, !tbaa !34
  %28 = load i64, ptr %5, align 8, !tbaa !34
  %29 = trunc i64 %28 to i32
  call void @llvm.lifetime.end.p0(i64 8, ptr %5) #3
  call void @llvm.lifetime.end.p0(i64 8, ptr %4) #3
  call void @llvm.lifetime.end.p0(i64 8, ptr %3) #3
  ret i32 %29
}

; Function Attrs: mustprogress uwtable
define noundef i32 @_ZN7Imf_3_423getChunkOffsetTableSizeERKNS_6HeaderE(ptr noundef nonnull align 8 dereferenceable(49) %0) #6 personality ptr @__gxx_personality_v0 {
  %2 = alloca i32, align 4
  %3 = alloca ptr, align 8
  %4 = alloca ptr, align 8
  %5 = alloca i32, align 4
  store ptr %0, ptr %3, align 8, !tbaa !16
  %6 = load ptr, ptr %3, align 8, !tbaa !16
  %7 = call noundef zeroext i1 @_ZNK7Imf_3_46Header7hasTypeEv(ptr noundef nonnull align 8 dereferenceable(49) %6)
  br i1 %7, label %8, label %26

8:                                                ; preds = %1
  %9 = load ptr, ptr %3, align 8, !tbaa !16
  %10 = call noundef nonnull align 8 dereferenceable(32) ptr @_ZNK7Imf_3_46Header4typeB5cxx11Ev(ptr noundef nonnull align 8 dereferenceable(49) %9)
  %11 = call noundef zeroext i1 @_ZN7Imf_3_415isSupportedTypeERKNSt7__cxx1112basic_stringIcSt11char_traitsIcESaIcEEE(ptr noundef nonnull align 8 dereferenceable(32) %10)
  br i1 %11, label %26, label %12

12:                                               ; preds = %8
  %13 = load ptr, ptr %3, align 8, !tbaa !16
  %14 = call noundef zeroext i1 @_ZNK7Imf_3_46Header13hasChunkCountEv(ptr noundef nonnull align 8 dereferenceable(49) %13)
  br i1 %14, label %15, label %19

15:                                               ; preds = %12
  %16 = load ptr, ptr %3, align 8, !tbaa !16
  %17 = call noundef nonnull align 4 dereferenceable(4) ptr @_ZNK7Imf_3_46Header10chunkCountEv(ptr noundef nonnull align 8 dereferenceable(49) %16)
  %18 = load i32, ptr %17, align 4, !tbaa !14
  store i32 %18, ptr %2, align 4
  br label %38

19:                                               ; preds = %12
  %20 = call ptr @__cxa_allocate_exception(i64 72) #3
  invoke void @_ZN7Iex_3_46ArgExcC1EPKc(ptr noundef nonnull align 8 dereferenceable(72) %20, ptr noundef @.str.11)
          to label %21 unwind label %22

21:                                               ; preds = %19
  call void @__cxa_throw(ptr %20, ptr @_ZTIN7Iex_3_46ArgExcE, ptr @_ZN7Iex_3_46ArgExcD1Ev) #19
  unreachable

22:                                               ; preds = %19
  %23 = landingpad { ptr, i32 }
          cleanup
  %24 = extractvalue { ptr, i32 } %23, 0
  store ptr %24, ptr %4, align 8
  %25 = extractvalue { ptr, i32 } %23, 1
  store i32 %25, ptr %5, align 4
  call void @__cxa_free_exception(ptr %20) #3
  br label %40

26:                                               ; preds = %8, %1
  %27 = load ptr, ptr %3, align 8, !tbaa !16
  %28 = call noundef nonnull align 8 dereferenceable(32) ptr @_ZNK7Imf_3_46Header4typeB5cxx11Ev(ptr noundef nonnull align 8 dereferenceable(49) %27)
  %29 = call noundef zeroext i1 @_ZN7Imf_3_47isTiledERKNSt7__cxx1112basic_stringIcSt11char_traitsIcESaIcEEE(ptr noundef nonnull align 8 dereferenceable(32) %28)
  %30 = zext i1 %29 to i32
  %31 = icmp eq i32 %30, 0
  br i1 %31, label %32, label %35

32:                                               ; preds = %26
  %33 = load ptr, ptr %3, align 8, !tbaa !16
  %34 = call noundef i32 @_ZN7Imf_3_431getScanlineChunkOffsetTableSizeERKNS_6HeaderE(ptr noundef nonnull align 8 dereferenceable(49) %33)
  store i32 %34, ptr %2, align 4
  br label %38

35:                                               ; preds = %26
  %36 = load ptr, ptr %3, align 8, !tbaa !16
  %37 = call noundef i32 @_ZN7Imf_3_428getTiledChunkOffsetTableSizeERKNS_6HeaderE(ptr noundef nonnull align 8 dereferenceable(49) %36)
  store i32 %37, ptr %2, align 4
  br label %38

38:                                               ; preds = %35, %32, %15
  %39 = load i32, ptr %2, align 4
  ret i32 %39

40:                                               ; preds = %22
  %41 = load ptr, ptr %4, align 8
  %42 = load i32, ptr %5, align 4
  %43 = insertvalue { ptr, i32 } poison, ptr %41, 0
  %44 = insertvalue { ptr, i32 } %43, i32 %42, 1
  resume { ptr, i32 } %44
}