; Function Attrs: mustprogress uwtable
define noundef i32 @_ZN7Imf_3_423getChunkOffsetTableSizeERKNS_6HeaderE(ptr noundef nonnull align 8 dereferenceable(49) %0) local_unnamed_addr #5 personality ptr @__gxx_personality_v0 {
  %2 = tail call noundef zeroext i1 @_ZNK7Imf_3_46Header7hasTypeEv(ptr noundef nonnull align 8 dereferenceable(49) %0)
  br i1 %2, label %3, label %16

3:                                                ; preds = %1
  %4 = tail call noundef nonnull align 8 dereferenceable(32) ptr @_ZNK7Imf_3_46Header4typeB5cxx11Ev(ptr noundef nonnull align 8 dereferenceable(49) %0)
  %5 = tail call noundef zeroext i1 @_ZN7Imf_3_415isSupportedTypeERKNSt7__cxx1112basic_stringIcSt11char_traitsIcESaIcEEE(ptr noundef nonnull align 8 dereferenceable(32) %4)
  br i1 %5, label %16, label %6

6:                                                ; preds = %3
  %7 = tail call noundef zeroext i1 @_ZNK7Imf_3_46Header13hasChunkCountEv(ptr noundef nonnull align 8 dereferenceable(49) %0)
  br i1 %7, label %8, label %11

8:                                                ; preds = %6
  %9 = tail call noundef nonnull align 4 dereferenceable(4) ptr @_ZNK7Imf_3_46Header10chunkCountEv(ptr noundef nonnull align 8 dereferenceable(49) %0)
  %10 = load i32, ptr %9, align 4, !tbaa !31
  br label %37

11:                                               ; preds = %6
  %12 = tail call ptr @__cxa_allocate_exception(i64 72) #20
  invoke void @_ZN7Iex_3_46ArgExcC1EPKc(ptr noundef nonnull align 8 dereferenceable(72) %12, ptr noundef nonnull @.str.11)
          to label %13 unwind label %14

13:                                               ; preds = %11
  tail call void @__cxa_throw(ptr nonnull %12, ptr nonnull @_ZTIN7Iex_3_46ArgExcE, ptr nonnull @_ZN7Iex_3_46ArgExcD1Ev) #21
  unreachable

14:                                               ; preds = %11
  %15 = landingpad { ptr, i32 }
          cleanup
  tail call void @__cxa_free_exception(ptr nonnull %12) #20
  resume { ptr, i32 } %15

16:                                               ; preds = %3, %1
  %17 = tail call noundef nonnull align 8 dereferenceable(32) ptr @_ZNK7Imf_3_46Header4typeB5cxx11Ev(ptr noundef nonnull align 8 dereferenceable(49) %0)
  %18 = tail call noundef zeroext i1 @_ZN7Imf_3_47isTiledERKNSt7__cxx1112basic_stringIcSt11char_traitsIcESaIcEEE(ptr noundef nonnull align 8 dereferenceable(32) %17)
  br i1 %18, label %35, label %19

19:                                               ; preds = %16
  %20 = tail call noundef nonnull align 4 dereferenceable(16) ptr @_ZNK7Imf_3_46Header10dataWindowEv(ptr noundef nonnull align 8 dereferenceable(49) %0)
  %21 = tail call noundef nonnull align 4 dereferenceable(4) ptr @_ZNK7Imf_3_46Header11compressionEv(ptr noundef nonnull align 8 dereferenceable(49) %0)
  %22 = load i32, ptr %21, align 4, !tbaa !157
  %23 = tail call noundef i32 @_ZN7Imf_3_416numLinesInBufferENS_11CompressionE(i32 noundef %22)
  %24 = sext i32 %23 to i64
  %25 = getelementptr inbounds nuw i8, ptr %20, i64 12
  %26 = load i32, ptr %25, align 4, !tbaa !3
  %27 = sext i32 %26 to i64
  %28 = getelementptr inbounds nuw i8, ptr %20, i64 4
  %29 = load i32, ptr %28, align 4, !tbaa !9
  %30 = sext i32 %29 to i64
  %31 = add nsw i64 %27, %24
  %32 = sub nsw i64 %31, %30
  %33 = sdiv i64 %32, %24
  %34 = trunc i64 %33 to i32
  br label %37

35:                                               ; preds = %16
  %36 = tail call noundef i32 @_ZN7Imf_3_428getTiledChunkOffsetTableSizeERKNS_6HeaderE(ptr noundef nonnull align 8 dereferenceable(49) %0)
  br label %37

37:                                               ; preds = %35, %19, %8
  %.0 = phi i32 [ %34, %19 ], [ %36, %35 ], [ %10, %8 ]
  ret i32 %.0
}